; ModuleID = '50/603.c'
source_filename = "50/603.c"
target datalayout = "e-m:e-p270:32:32-p271:32:32-p272:64:64-i64:64-f80:128-n8:16:32:64-S128"
target triple = "x86_64-pc-linux-gnu"

@__const.main.a = private unnamed_addr constant [12 x i32] [i32 13, i32 44, i32 72, i32 103, i32 133, i32 164, i32 194, i32 225, i32 256, i32 286, i32 317, i32 347], align 16
@.str = private unnamed_addr constant [3 x i8] c"%d\00", align 1
@.str.1 = private unnamed_addr constant [4 x i8] c"%d\0A\00", align 1

; Function Attrs: noinline nounwind uwtable
define dso_local i32 @main(i32 %0, i8** %1) #0 {
  %3 = alloca i32, align 4
  %4 = alloca i32, align 4
  %5 = alloca i8**, align 8
  %6 = alloca i32, align 4
  %7 = alloca [12 x i32], align 16
  %8 = alloca i32, align 4
  store i32 0, i32* %3, align 4
  store i32 %0, i32* %4, align 4
  store i8** %1, i8*** %5, align 8
  %9 = bitcast [12 x i32]* %7 to i8*
  call void @llvm.memcpy.p0i8.p0i8.i64(i8* align 16 %9, i8* align 16 bitcast ([12 x i32]* @__const.main.a to i8*), i64 48, i1 false)
  %10 = call i32 (i8*, ...) @__isoc99_scanf(i8* getelementptr inbounds ([3 x i8], [3 x i8]* @.str, i64 0, i64 0), i32* %6)
  store i32 0, i32* %8, align 4
  br label %11

11:                                               ; preds = %50, %2
  %12 = load i32, i32* %8, align 4
  %13 = icmp slt i32 %12, 12
  br i1 %13, label %14, label %53

14:                                               ; preds = %11
  %15 = load i32, i32* %6, align 4
  %16 = icmp eq i32 %15, 7
  br i1 %16, label %17, label %31

17:                                               ; preds = %14
  %18 = load i32, i32* %8, align 4
  %19 = sext i32 %18 to i64
  %20 = getelementptr inbounds [12 x i32], [12 x i32]* %7, i64 0, i64 %19
  %21 = load i32, i32* %20, align 4
  %22 = srem i32 %21, 7
  %23 = load i32, i32* %6, align 4
  %24 = add nsw i32 %22, %23
  %25 = sub nsw i32 %24, 8
  %26 = icmp eq i32 %25, 5
  br i1 %26, label %27, label %31

27:                                               ; preds = %17
  %28 = load i32, i32* %8, align 4
  %29 = add nsw i32 %28, 1
  %30 = call i32 (i8*, ...) @printf(i8* getelementptr inbounds ([4 x i8], [4 x i8]* @.str.1, i64 0, i64 0), i32 %29)
  br label %49

31:                                               ; preds = %17, %14
  %32 = load i32, i32* %6, align 4
  %33 = icmp ne i32 %32, 7
  br i1 %33, label %34, label %48

34:                                               ; preds = %31
  %35 = load i32, i32* %8, align 4
  %36 = sext i32 %35 to i64
  %37 = getelementptr inbounds [12 x i32], [12 x i32]* %7, i64 0, i64 %36
  %38 = load i32, i32* %37, align 4
  %39 = srem i32 %38, 7
  %40 = load i32, i32* %6, align 4
  %41 = add nsw i32 %39, %40
  %42 = sub nsw i32 %41, 1
  %43 = icmp eq i32 %42, 5
  br i1 %43, label %44, label %48

44:                                               ; preds = %34
  %45 = load i32, i32* %8, align 4
  %46 = add nsw i32 %45, 1
  %47 = call i32 (i8*, ...) @printf(i8* getelementptr inbounds ([4 x i8], [4 x i8]* @.str.1, i64 0, i64 0), i32 %46)
  br label %48

48:                                               ; preds = %44, %34, %31
  br label %49

49:                                               ; preds = %48, %27
  br label %50

50:                                               ; preds = %49
  %51 = load i32, i32* %8, align 4
  %52 = add nsw i32 %51, 1
  store i32 %52, i32* %8, align 4
  br label %11

53:                                               ; preds = %11
  ret i32 0
}

; Function Attrs: argmemonly nounwind willreturn
declare void @llvm.memcpy.p0i8.p0i8.i64(i8* noalias nocapture writeonly, i8* noalias nocapture readonly, i64, i1 immarg) #1

declare dso_local i32 @__isoc99_scanf(i8*, ...) #2

declare dso_local i32 @printf(i8*, ...) #2


!llvm.module.flags = !{!0}
!llvm.ident = !{!1}

!0 = !{i32 1, !"wchar_size", i32 4}
!1 = !{!"clang version 10.0.0-4ubuntu1 "}
